(lp0
S'poi'
p1
aS'total_stock_value'
p2
aS'bonus'
p3
aS'salary'
p4
aS'exercised_stock_options'
p5
aS'total_payments'
p6
aS'fraction_from_poi'
p7
aS'fraction_to_poi'
p8
aS'shared_receipt_with_poi'
p9
a.